target datalayout = "e-m:e-p270:32:32-p271:32:32-p272:64:64-i64:64-i128:128-f80:128-n8:16:32:64-S128"
target triple = "x86_64-pc-linux-gnu"

%struct.expert_field = type { i32, i32 }

@hf_gdsdb_openblob2_bpb = internal global i32 0, align 4
@hf_gdsdb_openblob_transaction = internal global i32 0, align 4
@hf_gdsdb_openblob_id = internal global i32 0, align 4
@ei_gdsdb_invalid_length = internal global %struct.expert_field zeroinitializer, align 4
@.str.281 = private unnamed_addr constant [19 x i8] c"Invalid length: %d\00", align 1

; Function Attrs: nounwind uwtable
define internal i32 @add_uint_string(ptr noundef %0, i32 noundef %1, ptr noundef %2, i32 noundef %3) #0 {
  %5 = alloca i32, align 4
  %6 = alloca ptr, align 8
  %7 = alloca i32, align 4
  %8 = alloca ptr, align 8
  %9 = alloca i32, align 4
  %10 = alloca ptr, align 8
  %11 = alloca i32, align 4
  %12 = alloca i32, align 4
  store ptr %0, ptr %6, align 8
  store i32 %1, ptr %7, align 4
  store ptr %2, ptr %8, align 8
  store i32 %3, ptr %9, align 4
  %13 = load ptr, ptr %6, align 8
  %14 = load i32, ptr %7, align 4
  %15 = load ptr, ptr %8, align 8
  %16 = load i32, ptr %9, align 4
  %17 = call ptr @proto_tree_add_item(ptr noundef %13, i32 noundef %14, ptr noundef %15, i32 noundef %16, i32 noundef 4, i32 noundef 0)
  store ptr %17, ptr %10, align 8
  %18 = load ptr, ptr %8, align 8
  %19 = load i32, ptr %9, align 4
  %20 = call i32 @tvb_get_ntohl(ptr noundef %18, i32 noundef %19)
  %21 = call i32 @dword_align(i32 noundef %20)
  %22 = add i32 %21, 4
  store i32 %22, ptr %11, align 4
  %23 = load ptr, ptr %10, align 8
  %24 = load i32, ptr %11, align 4
  call void @proto_item_set_len(ptr noundef %23, i32 noundef %24)
  %25 = load i32, ptr %9, align 4
  %26 = load i32, ptr %11, align 4
  %27 = add i32 %25, %26
  store i32 %27, ptr %12, align 4
  %28 = load i32, ptr %11, align 4
  %29 = icmp slt i32 %28, 4
  br i1 %29, label %34, label %30

30:                                               ; preds = %4
  %31 = load i32, ptr %12, align 4
  %32 = load i32, ptr %9, align 4
  %33 = icmp slt i32 %31, %32
  br i1 %33, label %34, label %40

34:                                               ; preds = %30, %4
  %35 = load ptr, ptr %10, align 8
  %36 = load i32, ptr %11, align 4
  %37 = call ptr (ptr, ptr, ptr, ptr, ...) @expert_add_info_format(ptr noundef null, ptr noundef %35, ptr noundef @ei_gdsdb_invalid_length, ptr noundef @.str.281, i32 noundef %36)
  %38 = load ptr, ptr %8, align 8
  %39 = call i32 @tvb_reported_length(ptr noundef %38)
  store i32 %39, ptr %5, align 4
  br label %42

40:                                               ; preds = %30
  %41 = load i32, ptr %12, align 4
  store i32 %41, ptr %5, align 4
  br label %42

42:                                               ; preds = %40, %34
  %43 = load i32, ptr %5, align 4
  ret i32 %43
}

; Function Attrs: nounwind uwtable
define internal i32 @dword_align(i32 noundef %0) #0 {
  %2 = alloca i32, align 4
  store i32 %0, ptr %2, align 4
  %3 = load i32, ptr %2, align 4
  %4 = load i32, ptr %2, align 4
  %5 = and i32 %4, 3
  %6 = sub i32 4, %5
  %7 = add i32 %3, %6
  ret i32 %7
}

; Function Attrs: nounwind uwtable
define internal i32 @gdsdb_open_blob2(ptr noundef %0, ptr noundef %1, ptr noundef %2, i32 noundef %3) #0 {
  %5 = alloca i32, align 4
  %6 = alloca ptr, align 8
  %7 = alloca ptr, align 8
  %8 = alloca ptr, align 8
  %9 = alloca i32, align 4
  %10 = alloca i32, align 4
  %11 = alloca i32, align 4
  store ptr %0, ptr %6, align 8
  store ptr %1, ptr %7, align 8
  store ptr %2, ptr %8, align 8
  store i32 %3, ptr %9, align 4
  store i32 12, ptr %10, align 4
  %12 = load ptr, ptr %6, align 8
  %13 = load i32, ptr %9, align 4
  %14 = call i32 @tvb_reported_length_remaining(ptr noundef %12, i32 noundef %13)
  store i32 %14, ptr %11, align 4
  %15 = load i32, ptr %11, align 4
  %16 = load i32, ptr %10, align 4
  %17 = icmp slt i32 %15, %16
  br i1 %17, label %18, label %19

18:                                               ; preds = %4
  store i32 -1, ptr %5, align 4
  br label %51

19:                                               ; preds = %4
  %20 = load ptr, ptr %6, align 8
  %21 = load i32, ptr %9, align 4
  %22 = call i32 @tvb_get_ntohl(ptr noundef %20, i32 noundef %21)
  %23 = call i32 @dword_align(i32 noundef %22)
  %24 = load i32, ptr %10, align 4
  %25 = add i32 %24, %23
  store i32 %25, ptr %10, align 4
  %26 = load i32, ptr %11, align 4
  %27 = load i32, ptr %10, align 4
  %28 = icmp slt i32 %26, %27
  br i1 %28, label %29, label %30

29:                                               ; preds = %19
  store i32 -1, ptr %5, align 4
  br label %51

30:                                               ; preds = %19
  %31 = load ptr, ptr %8, align 8
  %32 = load i32, ptr @hf_gdsdb_openblob2_bpb, align 4
  %33 = load ptr, ptr %6, align 8
  %34 = load i32, ptr %9, align 4
  %35 = call i32 @add_uint_string(ptr noundef %31, i32 noundef %32, ptr noundef %33, i32 noundef %34)
  store i32 %35, ptr %9, align 4
  %36 = load ptr, ptr %8, align 8
  %37 = load i32, ptr @hf_gdsdb_openblob_transaction, align 4
  %38 = load ptr, ptr %6, align 8
  %39 = load i32, ptr %9, align 4
  %40 = call ptr @proto_tree_add_item(ptr noundef %36, i32 noundef %37, ptr noundef %38, i32 noundef %39, i32 noundef 4, i32 noundef 0)
  %41 = load i32, ptr %9, align 4
  %42 = add i32 %41, 4
  store i32 %42, ptr %9, align 4
  %43 = load ptr, ptr %8, align 8
  %44 = load i32, ptr @hf_gdsdb_openblob_id, align 4
  %45 = load ptr, ptr %6, align 8
  %46 = load i32, ptr %9, align 4
  %47 = call ptr @proto_tree_add_item(ptr noundef %43, i32 noundef %44, ptr noundef %45, i32 noundef %46, i32 noundef 8, i32 noundef 0)
  %48 = load i32, ptr %9, align 4
  %49 = add i32 %48, 8
  store i32 %49, ptr %9, align 4
  %50 = load i32, ptr %9, align 4
  store i32 %50, ptr %5, align 4
  br label %51

51:                                               ; preds = %30, %29, %18
  %52 = load i32, ptr %5, align 4
  ret i32 %52
}