; Function Attrs: nounwind uwtable
define internal noundef i32 @gdsdb_open_blob2(ptr noundef %0, ptr readnone captures(none) %1, ptr noundef %2, i32 noundef %3) #0 {
  %5 = tail call i32 @tvb_reported_length_remaining(ptr noundef %0, i32 noundef %3) #3
  %6 = icmp slt i32 %5, 12
  br i1 %6, label %29, label %7

7:                                                ; preds = %4
  %8 = tail call i32 @tvb_get_ntohl(ptr noundef %0, i32 noundef %3) #3
  %reass.sub.i = and i32 %8, -4
  %9 = add i32 %reass.sub.i, 16
  %10 = icmp slt i32 %5, %9
  br i1 %10, label %29, label %11

11:                                               ; preds = %7
  %12 = load i32, ptr @hf_gdsdb_openblob2_bpb, align 4
  %13 = tail call ptr @proto_tree_add_item(ptr noundef %2, i32 noundef %12, ptr noundef %0, i32 noundef %3, i32 noundef 4, i32 noundef 0) #3
  %14 = tail call i32 @tvb_get_ntohl(ptr noundef %0, i32 noundef %3) #3
  %reass.sub.i.i = and i32 %14, -4
  %15 = add i32 %reass.sub.i.i, 8
  tail call void @proto_item_set_len(ptr noundef %13, i32 noundef %15) #3
  %16 = add i32 %15, %3
  %17 = add i32 %14, -2147483640
  %18 = icmp ult i32 %17, -2147483644
  %19 = icmp slt i32 %16, %3
  %or.cond.i = or i1 %18, %19
  br i1 %or.cond.i, label %20, label %add_uint_string.exit

20:                                               ; preds = %11
  %21 = tail call ptr (ptr, ptr, ptr, ptr, ...) @expert_add_info_format(ptr noundef null, ptr noundef %13, ptr noundef nonnull @ei_gdsdb_invalid_length, ptr noundef nonnull @.str.281, i32 noundef %15) #3
  %22 = tail call i32 @tvb_reported_length(ptr noundef %0) #3
  br label %add_uint_string.exit

add_uint_string.exit:                             ; preds = %11, %20
  %.0.i = phi i32 [ %22, %20 ], [ %16, %11 ]
  %23 = load i32, ptr @hf_gdsdb_openblob_transaction, align 4
  %24 = tail call ptr @proto_tree_add_item(ptr noundef %2, i32 noundef %23, ptr noundef %0, i32 noundef %.0.i, i32 noundef 4, i32 noundef 0) #3
  %25 = add i32 %.0.i, 4
  %26 = load i32, ptr @hf_gdsdb_openblob_id, align 4
  %27 = tail call ptr @proto_tree_add_item(ptr noundef %2, i32 noundef %26, ptr noundef %0, i32 noundef %25, i32 noundef 8, i32 noundef 0) #3
  %28 = add i32 %.0.i, 12
  br label %29

29:                                               ; preds = %7, %4, %add_uint_string.exit
  %.0 = phi i32 [ %28, %add_uint_string.exit ], [ -1, %4 ], [ -1, %7 ]
  ret i32 %.0
}